; Function Attrs: mustprogress uwtable
define noundef nonnull align 8 dereferenceable(16) ptr @_ZNK8QuantLib15Merton76Process13dividendYieldEv(ptr nocapture noundef nonnull readonly align 8 dereferenceable(208) %this) local_unnamed_addr #6 align 2 {
entry:
  %blackProcess_ = getelementptr inbounds nuw i8, ptr %this, i64 144
  %0 = load ptr, ptr %blackProcess_, align 8, !tbaa !34
  %cmp.not.i = icmp eq ptr %0, null
  br i1 %cmp.not.i, label %cond.false.i, label %_ZNK5boost10shared_ptrIN8QuantLib30GeneralizedBlackScholesProcessEEptEv.exit, !prof !58

cond.false.i:                                     ; preds = %entry
  tail call void @_ZN5boost16assertion_failedEPKcS1_S1_l(ptr noundef nonnull @.str.5, ptr noundef nonnull @__PRETTY_FUNCTION__._ZNK5boost10shared_ptrIN8QuantLib30GeneralizedBlackScholesProcessEEptEv, ptr noundef nonnull @.str.6, i64 noundef 784)
  %.pre.i = load ptr, ptr %blackProcess_, align 8, !tbaa !34
  br label %_ZNK5boost10shared_ptrIN8QuantLib30GeneralizedBlackScholesProcessEEptEv.exit

_ZNK5boost10shared_ptrIN8QuantLib30GeneralizedBlackScholesProcessEEptEv.exit: ; preds = %entry, %cond.false.i
  %1 = phi ptr [ %0, %entry ], [ %.pre.i, %cond.false.i ]
  %call2 = tail call noundef nonnull align 8 dereferenceable(16) ptr @_ZNK8QuantLib30GeneralizedBlackScholesProcess13dividendYieldEv(ptr noundef nonnull align 8 dereferenceable(250) %1)
  ret ptr %call2
}